; Function Attrs: mustprogress nounwind uwtable
define hidden void @_ZN6Assimp18ZipArchiveIOSystem5CloseEPNS_8IOStreamE(ptr nocapture nonnull readnone align 8 %this, ptr noundef %pFile) unnamed_addr #1 align 2 {
entry:
  %isnull = icmp eq ptr %pFile, null
  br i1 %isnull, label %delete.end, label %delete.notnull

delete.notnull:                                   ; preds = %entry
  %vtable = load ptr, ptr %pFile, align 8
  %vfn = getelementptr inbounds i8, ptr %vtable, i64 8
  %0 = load ptr, ptr %vfn, align 8
  tail call void %0(ptr noundef nonnull align 8 dereferenceable(8) %pFile) #28
  br label %delete.end

delete.end:                                       ; preds = %delete.notnull, %entry
  ret void
}